; Function Attrs: nounwind uwtable
define dso_local range(i64 0, 4) i64 @strbuf_expand_literal(ptr noundef captures(none) %0, ptr noundef readonly captures(none) %1) local_unnamed_addr #3 {
  %3 = load i8, ptr %1, align 1, !tbaa !4
  switch i8 %3, label %77 [
    i8 110, label %4
    i8 120, label %31
  ]

4:                                                ; preds = %2
  %5 = load i64, ptr %0, align 8, !tbaa !15
  %.not.i.i = icmp eq i64 %5, 0
  %6 = getelementptr inbounds nuw i8, ptr %0, i64 8
  %7 = load i64, ptr %6, align 8, !tbaa !16
  br i1 %.not.i.i, label %strbuf_avail.exit.thread.i, label %strbuf_avail.exit.i

strbuf_avail.exit.i:                              ; preds = %4
  %.neg.i = add i64 %7, 1
  %.not.i = icmp eq i64 %5, %.neg.i
  br i1 %.not.i, label %.thread.i, label %strbuf_addch.exit

strbuf_avail.exit.thread.i:                       ; preds = %4
  %8 = icmp ugt i64 %7, -3
  br i1 %8, label %10, label %11

.thread.i:                                        ; preds = %strbuf_avail.exit.i
  %9 = icmp ugt i64 %7, -3
  br i1 %9, label %10, label %.thread8.i

10:                                               ; preds = %.thread.i, %strbuf_avail.exit.thread.i
  tail call void (ptr, ...) @die(ptr noundef nonnull @.str) #24
  unreachable

11:                                               ; preds = %strbuf_avail.exit.thread.i
  %12 = getelementptr inbounds nuw i8, ptr %0, i64 16
  store ptr null, ptr %12, align 8, !tbaa !12
  br label %.thread8.i

.thread8.i:                                       ; preds = %11, %.thread.i
  %13 = add nuw i64 %7, 2
  %14 = icmp ugt i64 %13, %5
  br i1 %14, label %15, label %strbuf_addch.exit

15:                                               ; preds = %.thread8.i
  %16 = mul i64 %5, 3
  %17 = add i64 %16, 48
  %18 = lshr i64 %17, 1
  %..i.i = tail call i64 @llvm.umax.i64(i64 %18, i64 %13)
  store i64 %..i.i, ptr %0, align 8, !tbaa !15
  %19 = getelementptr inbounds nuw i8, ptr %0, i64 16
  %20 = load ptr, ptr %19, align 8, !tbaa !12
  %21 = tail call ptr @xrealloc(ptr noundef %20, i64 noundef %..i.i) #25
  store ptr %21, ptr %19, align 8, !tbaa !12
  br i1 %.not.i.i, label %22, label %strbuf_addch.exit

22:                                               ; preds = %15
  store i8 0, ptr %21, align 1, !tbaa !4
  br label %strbuf_addch.exit

strbuf_addch.exit:                                ; preds = %strbuf_avail.exit.i, %.thread8.i, %15, %22
  %23 = getelementptr inbounds nuw i8, ptr %0, i64 16
  %24 = load ptr, ptr %23, align 8, !tbaa !12
  %25 = load i64, ptr %6, align 8, !tbaa !16
  %26 = add i64 %25, 1
  store i64 %26, ptr %6, align 8, !tbaa !16
  %27 = getelementptr inbounds nuw i8, ptr %24, i64 %25
  store i8 10, ptr %27, align 1, !tbaa !4
  %28 = load ptr, ptr %23, align 8, !tbaa !12
  %29 = load i64, ptr %6, align 8, !tbaa !16
  %30 = getelementptr inbounds nuw i8, ptr %28, i64 %29
  store i8 0, ptr %30, align 1, !tbaa !4
  br label %77

31:                                               ; preds = %2
  %32 = getelementptr inbounds nuw i8, ptr %1, i64 1
  %33 = load i8, ptr %32, align 1, !tbaa !4
  %34 = zext i8 %33 to i64
  %35 = getelementptr inbounds nuw [256 x i8], ptr @hexval_table, i64 0, i64 %34
  %36 = load i8, ptr %35, align 1, !tbaa !4
  %37 = sext i8 %36 to i32
  %.not.i7 = icmp ult i8 %36, 16
  br i1 %.not.i7, label %38, label %hex2chr.exit

38:                                               ; preds = %31
  %39 = shl nuw nsw i32 %37, 4
  %40 = getelementptr inbounds nuw i8, ptr %1, i64 2
  %41 = load i8, ptr %40, align 1, !tbaa !4
  %42 = zext i8 %41 to i64
  %43 = getelementptr inbounds nuw [256 x i8], ptr @hexval_table, i64 0, i64 %42
  %44 = load i8, ptr %43, align 1, !tbaa !4
  %45 = sext i8 %44 to i32
  %46 = or i32 %39, %45
  br label %hex2chr.exit

hex2chr.exit:                                     ; preds = %31, %38
  %47 = phi i32 [ %46, %38 ], [ %37, %31 ]
  %48 = icmp slt i32 %47, 0
  br i1 %48, label %77, label %49

49:                                               ; preds = %hex2chr.exit
  %50 = load i64, ptr %0, align 8, !tbaa !15
  %.not.i.i8 = icmp eq i64 %50, 0
  %51 = getelementptr inbounds nuw i8, ptr %0, i64 8
  %52 = load i64, ptr %51, align 8, !tbaa !16
  br i1 %.not.i.i8, label %strbuf_avail.exit.thread.i15, label %strbuf_avail.exit.i9

strbuf_avail.exit.i9:                             ; preds = %49
  %.neg.i10 = add i64 %52, 1
  %.not.i11 = icmp eq i64 %50, %.neg.i10
  br i1 %.not.i11, label %.thread.i12, label %strbuf_addch.exit16

strbuf_avail.exit.thread.i15:                     ; preds = %49
  %53 = icmp ugt i64 %52, -3
  br i1 %53, label %55, label %56

.thread.i12:                                      ; preds = %strbuf_avail.exit.i9
  %54 = icmp ugt i64 %52, -3
  br i1 %54, label %55, label %.thread8.i13

55:                                               ; preds = %.thread.i12, %strbuf_avail.exit.thread.i15
  tail call void (ptr, ...) @die(ptr noundef nonnull @.str) #24
  unreachable

56:                                               ; preds = %strbuf_avail.exit.thread.i15
  %57 = getelementptr inbounds nuw i8, ptr %0, i64 16
  store ptr null, ptr %57, align 8, !tbaa !12
  br label %.thread8.i13

.thread8.i13:                                     ; preds = %56, %.thread.i12
  %58 = add nuw i64 %52, 2
  %59 = icmp ugt i64 %58, %50
  br i1 %59, label %60, label %strbuf_addch.exit16

60:                                               ; preds = %.thread8.i13
  %61 = mul i64 %50, 3
  %62 = add i64 %61, 48
  %63 = lshr i64 %62, 1
  %..i.i14 = tail call i64 @llvm.umax.i64(i64 %63, i64 %58)
  store i64 %..i.i14, ptr %0, align 8, !tbaa !15
  %64 = getelementptr inbounds nuw i8, ptr %0, i64 16
  %65 = load ptr, ptr %64, align 8, !tbaa !12
  %66 = tail call ptr @xrealloc(ptr noundef %65, i64 noundef %..i.i14) #25
  store ptr %66, ptr %64, align 8, !tbaa !12
  br i1 %.not.i.i8, label %67, label %strbuf_addch.exit16

67:                                               ; preds = %60
  store i8 0, ptr %66, align 1, !tbaa !4
  br label %strbuf_addch.exit16

strbuf_addch.exit16:                              ; preds = %strbuf_avail.exit.i9, %.thread8.i13, %60, %67
  %68 = trunc i32 %47 to i8
  %69 = getelementptr inbounds nuw i8, ptr %0, i64 16
  %70 = load ptr, ptr %69, align 8, !tbaa !12
  %71 = load i64, ptr %51, align 8, !tbaa !16
  %72 = add i64 %71, 1
  store i64 %72, ptr %51, align 8, !tbaa !16
  %73 = getelementptr inbounds nuw i8, ptr %70, i64 %71
  store i8 %68, ptr %73, align 1, !tbaa !4
  %74 = load ptr, ptr %69, align 8, !tbaa !12
  %75 = load i64, ptr %51, align 8, !tbaa !16
  %76 = getelementptr inbounds nuw i8, ptr %74, i64 %75
  store i8 0, ptr %76, align 1, !tbaa !4
  br label %77

77:                                               ; preds = %2, %hex2chr.exit, %strbuf_addch.exit16, %strbuf_addch.exit
  %.0 = phi i64 [ 3, %strbuf_addch.exit16 ], [ 1, %strbuf_addch.exit ], [ 0, %hex2chr.exit ], [ 0, %2 ]
  ret i64 %.0
}